
strpalin32:     file format elf32-i386


Disassembly of section .init:

080482f4 <_init>:
 80482f4:	53                   	push   ebx
 80482f5:	83 ec 08             	sub    esp,0x8
 80482f8:	e8 b3 00 00 00       	call   80483b0 <__x86.get_pc_thunk.bx>
 80482fd:	81 c3 2b 16 00 00    	add    ebx,0x162b
 8048303:	8b 83 fc ff ff ff    	mov    eax,DWORD PTR [ebx-0x4]
 8048309:	85 c0                	test   eax,eax
 804830b:	74 05                	je     8048312 <_init+0x1e>
 804830d:	e8 2e 00 00 00       	call   8048340 <__gmon_start__@plt>
 8048312:	83 c4 08             	add    esp,0x8
 8048315:	5b                   	pop    ebx
 8048316:	c3                   	ret    

Disassembly of section .plt:

08048320 <puts@plt-0x10>:
 8048320:	ff 35 2c 99 04 08    	push   DWORD PTR ds:0x804992c
 8048326:	ff 25 30 99 04 08    	jmp    DWORD PTR ds:0x8049930
 804832c:	00 00                	add    BYTE PTR [eax],al
	...

08048330 <puts@plt>:
 8048330:	ff 25 34 99 04 08    	jmp    DWORD PTR ds:0x8049934
 8048336:	68 00 00 00 00       	push   0x0
 804833b:	e9 e0 ff ff ff       	jmp    8048320 <_init+0x2c>

08048340 <__gmon_start__@plt>:
 8048340:	ff 25 38 99 04 08    	jmp    DWORD PTR ds:0x8049938
 8048346:	68 08 00 00 00       	push   0x8
 804834b:	e9 d0 ff ff ff       	jmp    8048320 <_init+0x2c>

08048350 <strlen@plt>:
 8048350:	ff 25 3c 99 04 08    	jmp    DWORD PTR ds:0x804993c
 8048356:	68 10 00 00 00       	push   0x10
 804835b:	e9 c0 ff ff ff       	jmp    8048320 <_init+0x2c>

08048360 <__libc_start_main@plt>:
 8048360:	ff 25 40 99 04 08    	jmp    DWORD PTR ds:0x8049940
 8048366:	68 18 00 00 00       	push   0x18
 804836b:	e9 b0 ff ff ff       	jmp    8048320 <_init+0x2c>

08048370 <__isoc99_scanf@plt>:
 8048370:	ff 25 44 99 04 08    	jmp    DWORD PTR ds:0x8049944
 8048376:	68 20 00 00 00       	push   0x20
 804837b:	e9 a0 ff ff ff       	jmp    8048320 <_init+0x2c>

Disassembly of section .text:

08048380 <_start>:
 8048380:	31 ed                	xor    ebp,ebp
 8048382:	5e                   	pop    esi
 8048383:	89 e1                	mov    ecx,esp
 8048385:	83 e4 f0             	and    esp,0xfffffff0
 8048388:	50                   	push   eax
 8048389:	54                   	push   esp
 804838a:	52                   	push   edx
 804838b:	68 00 87 04 08       	push   0x8048700
 8048390:	68 90 86 04 08       	push   0x8048690
 8048395:	51                   	push   ecx
 8048396:	56                   	push   esi
 8048397:	68 7b 84 04 08       	push   0x804847b
 804839c:	e8 bf ff ff ff       	call   8048360 <__libc_start_main@plt>
 80483a1:	f4                   	hlt    
 80483a2:	66 90                	xchg   ax,ax
 80483a4:	66 90                	xchg   ax,ax
 80483a6:	66 90                	xchg   ax,ax
 80483a8:	66 90                	xchg   ax,ax
 80483aa:	66 90                	xchg   ax,ax
 80483ac:	66 90                	xchg   ax,ax
 80483ae:	66 90                	xchg   ax,ax

080483b0 <__x86.get_pc_thunk.bx>:
 80483b0:	8b 1c 24             	mov    ebx,DWORD PTR [esp]
 80483b3:	c3                   	ret    
 80483b4:	66 90                	xchg   ax,ax
 80483b6:	66 90                	xchg   ax,ax
 80483b8:	66 90                	xchg   ax,ax
 80483ba:	66 90                	xchg   ax,ax
 80483bc:	66 90                	xchg   ax,ax
 80483be:	66 90                	xchg   ax,ax

080483c0 <deregister_tm_clones>:
 80483c0:	b8 53 99 04 08       	mov    eax,0x8049953
 80483c5:	2d 50 99 04 08       	sub    eax,0x8049950
 80483ca:	83 f8 06             	cmp    eax,0x6
 80483cd:	76 1a                	jbe    80483e9 <deregister_tm_clones+0x29>
 80483cf:	b8 00 00 00 00       	mov    eax,0x0
 80483d4:	85 c0                	test   eax,eax
 80483d6:	74 11                	je     80483e9 <deregister_tm_clones+0x29>
 80483d8:	55                   	push   ebp
 80483d9:	89 e5                	mov    ebp,esp
 80483db:	83 ec 14             	sub    esp,0x14
 80483de:	68 50 99 04 08       	push   0x8049950
 80483e3:	ff d0                	call   eax
 80483e5:	83 c4 10             	add    esp,0x10
 80483e8:	c9                   	leave  
 80483e9:	f3 c3                	repz ret 
 80483eb:	90                   	nop
 80483ec:	8d 74 26 00          	lea    esi,[esi+eiz*1+0x0]

080483f0 <register_tm_clones>:
 80483f0:	b8 50 99 04 08       	mov    eax,0x8049950
 80483f5:	2d 50 99 04 08       	sub    eax,0x8049950
 80483fa:	c1 f8 02             	sar    eax,0x2
 80483fd:	89 c2                	mov    edx,eax
 80483ff:	c1 ea 1f             	shr    edx,0x1f
 8048402:	01 d0                	add    eax,edx
 8048404:	d1 f8                	sar    eax,1
 8048406:	74 1b                	je     8048423 <register_tm_clones+0x33>
 8048408:	ba 00 00 00 00       	mov    edx,0x0
 804840d:	85 d2                	test   edx,edx
 804840f:	74 12                	je     8048423 <register_tm_clones+0x33>
 8048411:	55                   	push   ebp
 8048412:	89 e5                	mov    ebp,esp
 8048414:	83 ec 10             	sub    esp,0x10
 8048417:	50                   	push   eax
 8048418:	68 50 99 04 08       	push   0x8049950
 804841d:	ff d2                	call   edx
 804841f:	83 c4 10             	add    esp,0x10
 8048422:	c9                   	leave  
 8048423:	f3 c3                	repz ret 
 8048425:	8d 74 26 00          	lea    esi,[esi+eiz*1+0x0]
 8048429:	8d bc 27 00 00 00 00 	lea    edi,[edi+eiz*1+0x0]

08048430 <__do_global_dtors_aux>:
 8048430:	80 3d 50 99 04 08 00 	cmp    BYTE PTR ds:0x8049950,0x0
 8048437:	75 13                	jne    804844c <__do_global_dtors_aux+0x1c>
 8048439:	55                   	push   ebp
 804843a:	89 e5                	mov    ebp,esp
 804843c:	83 ec 08             	sub    esp,0x8
 804843f:	e8 7c ff ff ff       	call   80483c0 <deregister_tm_clones>
 8048444:	c6 05 50 99 04 08 01 	mov    BYTE PTR ds:0x8049950,0x1
 804844b:	c9                   	leave  
 804844c:	f3 c3                	repz ret 
 804844e:	66 90                	xchg   ax,ax

08048450 <frame_dummy>:
 8048450:	b8 38 98 04 08       	mov    eax,0x8049838
 8048455:	8b 10                	mov    edx,DWORD PTR [eax]
 8048457:	85 d2                	test   edx,edx
 8048459:	75 05                	jne    8048460 <frame_dummy+0x10>
 804845b:	eb 93                	jmp    80483f0 <register_tm_clones>
 804845d:	8d 76 00             	lea    esi,[esi+0x0]
 8048460:	ba 00 00 00 00       	mov    edx,0x0
 8048465:	85 d2                	test   edx,edx
 8048467:	74 f2                	je     804845b <frame_dummy+0xb>
 8048469:	55                   	push   ebp
 804846a:	89 e5                	mov    ebp,esp
 804846c:	83 ec 14             	sub    esp,0x14
 804846f:	50                   	push   eax
 8048470:	ff d2                	call   edx
 8048472:	83 c4 10             	add    esp,0x10
 8048475:	c9                   	leave  
 8048476:	e9 75 ff ff ff       	jmp    80483f0 <register_tm_clones>

0804847b <main>:
 804847b:	8d 4c 24 04          	lea    ecx,[esp+0x4]
 804847f:	83 e4 f0             	and    esp,0xfffffff0
 8048482:	ff 71 fc             	push   DWORD PTR [ecx-0x4]
 8048485:	55                   	push   ebp
 8048486:	89 e5                	mov    ebp,esp
 8048488:	57                   	push   edi
 8048489:	56                   	push   esi
 804848a:	53                   	push   ebx
 804848b:	51                   	push   ecx
 804848c:	83 ec 38             	sub    esp,0x38
 804848f:	89 e0                	mov    eax,esp
 8048491:	89 c7                	mov    edi,eax
 8048493:	c7 45 c0 00 00 00 00 	mov    DWORD PTR [ebp-0x40],0x0
 804849a:	83 ec 08             	sub    esp,0x8
 804849d:	8d 45 c0             	lea    eax,[ebp-0x40]
 80484a0:	50                   	push   eax
 80484a1:	68 20 87 04 08       	push   0x8048720
 80484a6:	e8 c5 fe ff ff       	call   8048370 <__isoc99_scanf@plt>
 80484ab:	83 c4 10             	add    esp,0x10
 80484ae:	8b 4d c0             	mov    ecx,DWORD PTR [ebp-0x40]
 80484b1:	8d 41 ff             	lea    eax,[ecx-0x1]
 80484b4:	89 45 d0             	mov    DWORD PTR [ebp-0x30],eax
 80484b7:	89 c8                	mov    eax,ecx
 80484b9:	ba 00 00 00 00       	mov    edx,0x0
 80484be:	69 f2 90 3e 00 00    	imul   esi,edx,0x3e90
 80484c4:	6b d8 00             	imul   ebx,eax,0x0
 80484c7:	01 f3                	add    ebx,esi
 80484c9:	be 90 3e 00 00       	mov    esi,0x3e90
 80484ce:	f7 e6                	mul    esi
 80484d0:	01 d3                	add    ebx,edx
 80484d2:	89 da                	mov    edx,ebx
 80484d4:	89 c8                	mov    eax,ecx
 80484d6:	ba 00 00 00 00       	mov    edx,0x0
 80484db:	69 f2 90 3e 00 00    	imul   esi,edx,0x3e90
 80484e1:	6b d8 00             	imul   ebx,eax,0x0
 80484e4:	01 f3                	add    ebx,esi
 80484e6:	be 90 3e 00 00       	mov    esi,0x3e90
 80484eb:	f7 e6                	mul    esi
 80484ed:	01 d3                	add    ebx,edx
 80484ef:	89 da                	mov    edx,ebx
 80484f1:	89 c8                	mov    eax,ecx
 80484f3:	69 c0 d2 07 00 00    	imul   eax,eax,0x7d2
 80484f9:	ba 10 00 00 00       	mov    edx,0x10
 80484fe:	83 ea 01             	sub    edx,0x1
 8048501:	01 d0                	add    eax,edx
 8048503:	be 10 00 00 00       	mov    esi,0x10
 8048508:	ba 00 00 00 00       	mov    edx,0x0
 804850d:	f7 f6                	div    esi
 804850f:	6b c0 10             	imul   eax,eax,0x10
 8048512:	29 c4                	sub    esp,eax
 8048514:	89 e0                	mov    eax,esp
 8048516:	83 c0 00             	add    eax,0x0
 8048519:	89 45 cc             	mov    DWORD PTR [ebp-0x34],eax
 804851c:	c7 45 e4 00 00 00 00 	mov    DWORD PTR [ebp-0x1c],0x0
 8048523:	eb 4b                	jmp    8048570 <main+0xf5>
 8048525:	8b 45 e4             	mov    eax,DWORD PTR [ebp-0x1c]
 8048528:	69 d0 d2 07 00 00    	imul   edx,eax,0x7d2
 804852e:	8b 45 cc             	mov    eax,DWORD PTR [ebp-0x34]
 8048531:	01 d0                	add    eax,edx
 8048533:	83 ec 08             	sub    esp,0x8
 8048536:	50                   	push   eax
 8048537:	68 23 87 04 08       	push   0x8048723
 804853c:	e8 2f fe ff ff       	call   8048370 <__isoc99_scanf@plt>
 8048541:	83 c4 10             	add    esp,0x10
 8048544:	8b 45 e4             	mov    eax,DWORD PTR [ebp-0x1c]
 8048547:	69 c0 d2 07 00 00    	imul   eax,eax,0x7d2
 804854d:	8d 90 e0 03 00 00    	lea    edx,[eax+0x3e0]
 8048553:	8b 45 cc             	mov    eax,DWORD PTR [ebp-0x34]
 8048556:	01 d0                	add    eax,edx
 8048558:	83 c0 09             	add    eax,0x9
 804855b:	83 ec 08             	sub    esp,0x8
 804855e:	50                   	push   eax
 804855f:	68 23 87 04 08       	push   0x8048723
 8048564:	e8 07 fe ff ff       	call   8048370 <__isoc99_scanf@plt>
 8048569:	83 c4 10             	add    esp,0x10
 804856c:	83 45 e4 01          	add    DWORD PTR [ebp-0x1c],0x1
 8048570:	8b 45 c0             	mov    eax,DWORD PTR [ebp-0x40]
 8048573:	39 45 e4             	cmp    DWORD PTR [ebp-0x1c],eax
 8048576:	7c ad                	jl     8048525 <main+0xaa>
 8048578:	c7 45 e0 00 00 00 00 	mov    DWORD PTR [ebp-0x20],0x0
 804857f:	e9 e5 00 00 00       	jmp    8048669 <main+0x1ee>
 8048584:	c7 45 dc 00 00 00 00 	mov    DWORD PTR [ebp-0x24],0x0
 804858b:	8b 45 e0             	mov    eax,DWORD PTR [ebp-0x20]
 804858e:	69 d0 d2 07 00 00    	imul   edx,eax,0x7d2
 8048594:	8b 45 cc             	mov    eax,DWORD PTR [ebp-0x34]
 8048597:	01 d0                	add    eax,edx
 8048599:	83 ec 0c             	sub    esp,0xc
 804859c:	50                   	push   eax
 804859d:	e8 ae fd ff ff       	call   8048350 <strlen@plt>
 80485a2:	83 c4 10             	add    esp,0x10
 80485a5:	89 45 c8             	mov    DWORD PTR [ebp-0x38],eax
 80485a8:	8b 45 e0             	mov    eax,DWORD PTR [ebp-0x20]
 80485ab:	69 c0 d2 07 00 00    	imul   eax,eax,0x7d2
 80485b1:	8d 90 e0 03 00 00    	lea    edx,[eax+0x3e0]
 80485b7:	8b 45 cc             	mov    eax,DWORD PTR [ebp-0x34]
 80485ba:	01 d0                	add    eax,edx
 80485bc:	83 c0 09             	add    eax,0x9
 80485bf:	83 ec 0c             	sub    esp,0xc
 80485c2:	50                   	push   eax
 80485c3:	e8 88 fd ff ff       	call   8048350 <strlen@plt>
 80485c8:	83 c4 10             	add    esp,0x10
 80485cb:	89 45 c4             	mov    DWORD PTR [ebp-0x3c],eax
 80485ce:	c7 45 d8 00 00 00 00 	mov    DWORD PTR [ebp-0x28],0x0
 80485d5:	eb 5e                	jmp    8048635 <main+0x1ba>
 80485d7:	c7 45 d4 00 00 00 00 	mov    DWORD PTR [ebp-0x2c],0x0
 80485de:	eb 43                	jmp    8048623 <main+0x1a8>
 80485e0:	8b 45 cc             	mov    eax,DWORD PTR [ebp-0x34]
 80485e3:	8b 55 e0             	mov    edx,DWORD PTR [ebp-0x20]
 80485e6:	69 ca d2 07 00 00    	imul   ecx,edx,0x7d2
 80485ec:	8b 55 d8             	mov    edx,DWORD PTR [ebp-0x28]
 80485ef:	01 ca                	add    edx,ecx
 80485f1:	01 d0                	add    eax,edx
 80485f3:	0f b6 10             	movzx  edx,BYTE PTR [eax]
 80485f6:	8b 4d cc             	mov    ecx,DWORD PTR [ebp-0x34]
 80485f9:	8b 45 e0             	mov    eax,DWORD PTR [ebp-0x20]
 80485fc:	69 c0 d2 07 00 00    	imul   eax,eax,0x7d2
 8048602:	01 c1                	add    ecx,eax
 8048604:	8b 45 d4             	mov    eax,DWORD PTR [ebp-0x2c]
 8048607:	01 c8                	add    eax,ecx
 8048609:	05 e0 03 00 00       	add    eax,0x3e0
 804860e:	0f b6 40 09          	movzx  eax,BYTE PTR [eax+0x9]
 8048612:	38 c2                	cmp    dl,al
 8048614:	75 09                	jne    804861f <main+0x1a4>
 8048616:	c7 45 dc 01 00 00 00 	mov    DWORD PTR [ebp-0x24],0x1
 804861d:	eb 12                	jmp    8048631 <main+0x1b6>
 804861f:	83 45 d4 01          	add    DWORD PTR [ebp-0x2c],0x1
 8048623:	8b 45 d4             	mov    eax,DWORD PTR [ebp-0x2c]
 8048626:	3b 45 c4             	cmp    eax,DWORD PTR [ebp-0x3c]
 8048629:	7d 06                	jge    8048631 <main+0x1b6>
 804862b:	83 7d dc 00          	cmp    DWORD PTR [ebp-0x24],0x0
 804862f:	74 af                	je     80485e0 <main+0x165>
 8048631:	83 45 d8 01          	add    DWORD PTR [ebp-0x28],0x1
 8048635:	8b 45 d8             	mov    eax,DWORD PTR [ebp-0x28]
 8048638:	3b 45 c8             	cmp    eax,DWORD PTR [ebp-0x38]
 804863b:	7c 9a                	jl     80485d7 <main+0x15c>
 804863d:	83 7d dc 00          	cmp    DWORD PTR [ebp-0x24],0x0
 8048641:	74 12                	je     8048655 <main+0x1da>
 8048643:	83 ec 0c             	sub    esp,0xc
 8048646:	68 26 87 04 08       	push   0x8048726
 804864b:	e8 e0 fc ff ff       	call   8048330 <puts@plt>
 8048650:	83 c4 10             	add    esp,0x10
 8048653:	eb 10                	jmp    8048665 <main+0x1ea>
 8048655:	83 ec 0c             	sub    esp,0xc
 8048658:	68 2a 87 04 08       	push   0x804872a
 804865d:	e8 ce fc ff ff       	call   8048330 <puts@plt>
 8048662:	83 c4 10             	add    esp,0x10
 8048665:	83 45 e0 01          	add    DWORD PTR [ebp-0x20],0x1
 8048669:	8b 45 c0             	mov    eax,DWORD PTR [ebp-0x40]
 804866c:	39 45 e0             	cmp    DWORD PTR [ebp-0x20],eax
 804866f:	0f 8c 0f ff ff ff    	jl     8048584 <main+0x109>
 8048675:	89 fc                	mov    esp,edi
 8048677:	b8 00 00 00 00       	mov    eax,0x0
 804867c:	8d 65 f0             	lea    esp,[ebp-0x10]
 804867f:	59                   	pop    ecx
 8048680:	5b                   	pop    ebx
 8048681:	5e                   	pop    esi
 8048682:	5f                   	pop    edi
 8048683:	5d                   	pop    ebp
 8048684:	8d 61 fc             	lea    esp,[ecx-0x4]
 8048687:	c3                   	ret    
 8048688:	66 90                	xchg   ax,ax
 804868a:	66 90                	xchg   ax,ax
 804868c:	66 90                	xchg   ax,ax
 804868e:	66 90                	xchg   ax,ax

08048690 <__libc_csu_init>:
 8048690:	55                   	push   ebp
 8048691:	57                   	push   edi
 8048692:	31 ff                	xor    edi,edi
 8048694:	56                   	push   esi
 8048695:	53                   	push   ebx
 8048696:	e8 15 fd ff ff       	call   80483b0 <__x86.get_pc_thunk.bx>
 804869b:	81 c3 8d 12 00 00    	add    ebx,0x128d
 80486a1:	83 ec 1c             	sub    esp,0x1c
 80486a4:	8b 6c 24 30          	mov    ebp,DWORD PTR [esp+0x30]
 80486a8:	8d b3 0c ff ff ff    	lea    esi,[ebx-0xf4]
 80486ae:	e8 41 fc ff ff       	call   80482f4 <_init>
 80486b3:	8d 83 08 ff ff ff    	lea    eax,[ebx-0xf8]
 80486b9:	29 c6                	sub    esi,eax
 80486bb:	c1 fe 02             	sar    esi,0x2
 80486be:	85 f6                	test   esi,esi
 80486c0:	74 27                	je     80486e9 <__libc_csu_init+0x59>
 80486c2:	8d b6 00 00 00 00    	lea    esi,[esi+0x0]
 80486c8:	8b 44 24 38          	mov    eax,DWORD PTR [esp+0x38]
 80486cc:	89 2c 24             	mov    DWORD PTR [esp],ebp
 80486cf:	89 44 24 08          	mov    DWORD PTR [esp+0x8],eax
 80486d3:	8b 44 24 34          	mov    eax,DWORD PTR [esp+0x34]
 80486d7:	89 44 24 04          	mov    DWORD PTR [esp+0x4],eax
 80486db:	ff 94 bb 08 ff ff ff 	call   DWORD PTR [ebx+edi*4-0xf8]
 80486e2:	83 c7 01             	add    edi,0x1
 80486e5:	39 f7                	cmp    edi,esi
 80486e7:	75 df                	jne    80486c8 <__libc_csu_init+0x38>
 80486e9:	83 c4 1c             	add    esp,0x1c
 80486ec:	5b                   	pop    ebx
 80486ed:	5e                   	pop    esi
 80486ee:	5f                   	pop    edi
 80486ef:	5d                   	pop    ebp
 80486f0:	c3                   	ret    
 80486f1:	eb 0d                	jmp    8048700 <__libc_csu_fini>
 80486f3:	90                   	nop
 80486f4:	90                   	nop
 80486f5:	90                   	nop
 80486f6:	90                   	nop
 80486f7:	90                   	nop
 80486f8:	90                   	nop
 80486f9:	90                   	nop
 80486fa:	90                   	nop
 80486fb:	90                   	nop
 80486fc:	90                   	nop
 80486fd:	90                   	nop
 80486fe:	90                   	nop
 80486ff:	90                   	nop

08048700 <__libc_csu_fini>:
 8048700:	f3 c3                	repz ret 

Disassembly of section .fini:

08048704 <_fini>:
 8048704:	53                   	push   ebx
 8048705:	83 ec 08             	sub    esp,0x8
 8048708:	e8 a3 fc ff ff       	call   80483b0 <__x86.get_pc_thunk.bx>
 804870d:	81 c3 1b 12 00 00    	add    ebx,0x121b
 8048713:	83 c4 08             	add    esp,0x8
 8048716:	5b                   	pop    ebx
 8048717:	c3                   	ret    
