
strpalin:     file format elf64-x86-64


Disassembly of section .init:

0000000000400440 <_init>:
  400440:	48 83 ec 08          	sub    rsp,0x8
  400444:	48 8b 05 8d 07 20 00 	mov    rax,QWORD PTR [rip+0x20078d]        # 600bd8 <_DYNAMIC+0x1d0>
  40044b:	48 85 c0             	test   rax,rax
  40044e:	74 05                	je     400455 <_init+0x15>
  400450:	e8 4b 00 00 00       	call   4004a0 <__gmon_start__@plt>
  400455:	48 83 c4 08          	add    rsp,0x8
  400459:	c3                   	ret    

Disassembly of section .plt:

0000000000400460 <puts@plt-0x10>:
  400460:	ff 35 82 07 20 00    	push   QWORD PTR [rip+0x200782]        # 600be8 <_GLOBAL_OFFSET_TABLE_+0x8>
  400466:	ff 25 84 07 20 00    	jmp    QWORD PTR [rip+0x200784]        # 600bf0 <_GLOBAL_OFFSET_TABLE_+0x10>
  40046c:	0f 1f 40 00          	nop    DWORD PTR [rax+0x0]

0000000000400470 <puts@plt>:
  400470:	ff 25 82 07 20 00    	jmp    QWORD PTR [rip+0x200782]        # 600bf8 <_GLOBAL_OFFSET_TABLE_+0x18>
  400476:	68 00 00 00 00       	push   0x0
  40047b:	e9 e0 ff ff ff       	jmp    400460 <_init+0x20>

0000000000400480 <strlen@plt>:
  400480:	ff 25 7a 07 20 00    	jmp    QWORD PTR [rip+0x20077a]        # 600c00 <_GLOBAL_OFFSET_TABLE_+0x20>
  400486:	68 01 00 00 00       	push   0x1
  40048b:	e9 d0 ff ff ff       	jmp    400460 <_init+0x20>

0000000000400490 <__libc_start_main@plt>:
  400490:	ff 25 72 07 20 00    	jmp    QWORD PTR [rip+0x200772]        # 600c08 <_GLOBAL_OFFSET_TABLE_+0x28>
  400496:	68 02 00 00 00       	push   0x2
  40049b:	e9 c0 ff ff ff       	jmp    400460 <_init+0x20>

00000000004004a0 <__gmon_start__@plt>:
  4004a0:	ff 25 6a 07 20 00    	jmp    QWORD PTR [rip+0x20076a]        # 600c10 <_GLOBAL_OFFSET_TABLE_+0x30>
  4004a6:	68 03 00 00 00       	push   0x3
  4004ab:	e9 b0 ff ff ff       	jmp    400460 <_init+0x20>

00000000004004b0 <__isoc99_scanf@plt>:
  4004b0:	ff 25 62 07 20 00    	jmp    QWORD PTR [rip+0x200762]        # 600c18 <_GLOBAL_OFFSET_TABLE_+0x38>
  4004b6:	68 04 00 00 00       	push   0x4
  4004bb:	e9 a0 ff ff ff       	jmp    400460 <_init+0x20>

Disassembly of section .text:

00000000004004c0 <_start>:
  4004c0:	31 ed                	xor    ebp,ebp
  4004c2:	49 89 d1             	mov    r9,rdx
  4004c5:	5e                   	pop    rsi
  4004c6:	48 89 e2             	mov    rdx,rsp
  4004c9:	48 83 e4 f0          	and    rsp,0xfffffffffffffff0
  4004cd:	50                   	push   rax
  4004ce:	54                   	push   rsp
  4004cf:	49 c7 c0 90 08 40 00 	mov    r8,0x400890
  4004d6:	48 c7 c1 20 08 40 00 	mov    rcx,0x400820
  4004dd:	48 c7 c7 b6 05 40 00 	mov    rdi,0x4005b6
  4004e4:	e8 a7 ff ff ff       	call   400490 <__libc_start_main@plt>
  4004e9:	f4                   	hlt    
  4004ea:	66 0f 1f 44 00 00    	nop    WORD PTR [rax+rax*1+0x0]

00000000004004f0 <deregister_tm_clones>:
  4004f0:	b8 37 0c 60 00       	mov    eax,0x600c37
  4004f5:	55                   	push   rbp
  4004f6:	48 2d 30 0c 60 00    	sub    rax,0x600c30
  4004fc:	48 83 f8 0e          	cmp    rax,0xe
  400500:	48 89 e5             	mov    rbp,rsp
  400503:	76 1b                	jbe    400520 <deregister_tm_clones+0x30>
  400505:	b8 00 00 00 00       	mov    eax,0x0
  40050a:	48 85 c0             	test   rax,rax
  40050d:	74 11                	je     400520 <deregister_tm_clones+0x30>
  40050f:	5d                   	pop    rbp
  400510:	bf 30 0c 60 00       	mov    edi,0x600c30
  400515:	ff e0                	jmp    rax
  400517:	66 0f 1f 84 00 00 00 	nop    WORD PTR [rax+rax*1+0x0]
  40051e:	00 00 
  400520:	5d                   	pop    rbp
  400521:	c3                   	ret    
  400522:	0f 1f 40 00          	nop    DWORD PTR [rax+0x0]
  400526:	66 2e 0f 1f 84 00 00 	nop    WORD PTR cs:[rax+rax*1+0x0]
  40052d:	00 00 00 

0000000000400530 <register_tm_clones>:
  400530:	be 30 0c 60 00       	mov    esi,0x600c30
  400535:	55                   	push   rbp
  400536:	48 81 ee 30 0c 60 00 	sub    rsi,0x600c30
  40053d:	48 c1 fe 03          	sar    rsi,0x3
  400541:	48 89 e5             	mov    rbp,rsp
  400544:	48 89 f0             	mov    rax,rsi
  400547:	48 c1 e8 3f          	shr    rax,0x3f
  40054b:	48 01 c6             	add    rsi,rax
  40054e:	48 d1 fe             	sar    rsi,1
  400551:	74 15                	je     400568 <register_tm_clones+0x38>
  400553:	b8 00 00 00 00       	mov    eax,0x0
  400558:	48 85 c0             	test   rax,rax
  40055b:	74 0b                	je     400568 <register_tm_clones+0x38>
  40055d:	5d                   	pop    rbp
  40055e:	bf 30 0c 60 00       	mov    edi,0x600c30
  400563:	ff e0                	jmp    rax
  400565:	0f 1f 00             	nop    DWORD PTR [rax]
  400568:	5d                   	pop    rbp
  400569:	c3                   	ret    
  40056a:	66 0f 1f 44 00 00    	nop    WORD PTR [rax+rax*1+0x0]

0000000000400570 <__do_global_dtors_aux>:
  400570:	80 3d b9 06 20 00 00 	cmp    BYTE PTR [rip+0x2006b9],0x0        # 600c30 <__TMC_END__>
  400577:	75 11                	jne    40058a <__do_global_dtors_aux+0x1a>
  400579:	55                   	push   rbp
  40057a:	48 89 e5             	mov    rbp,rsp
  40057d:	e8 6e ff ff ff       	call   4004f0 <deregister_tm_clones>
  400582:	5d                   	pop    rbp
  400583:	c6 05 a6 06 20 00 01 	mov    BYTE PTR [rip+0x2006a6],0x1        # 600c30 <__TMC_END__>
  40058a:	f3 c3                	repz ret 
  40058c:	0f 1f 40 00          	nop    DWORD PTR [rax+0x0]

0000000000400590 <frame_dummy>:
  400590:	bf 00 0a 60 00       	mov    edi,0x600a00
  400595:	48 83 3f 00          	cmp    QWORD PTR [rdi],0x0
  400599:	75 05                	jne    4005a0 <frame_dummy+0x10>
  40059b:	eb 93                	jmp    400530 <register_tm_clones>
  40059d:	0f 1f 00             	nop    DWORD PTR [rax]
  4005a0:	b8 00 00 00 00       	mov    eax,0x0
  4005a5:	48 85 c0             	test   rax,rax
  4005a8:	74 f1                	je     40059b <frame_dummy+0xb>
  4005aa:	55                   	push   rbp
  4005ab:	48 89 e5             	mov    rbp,rsp
  4005ae:	ff d0                	call   rax
  4005b0:	5d                   	pop    rbp
  4005b1:	e9 7a ff ff ff       	jmp    400530 <register_tm_clones>

00000000004005b6 <main>:
  4005b6:	55                   	push   rbp
  4005b7:	48 89 e5             	mov    rbp,rsp
  4005ba:	41 57                	push   r15
  4005bc:	41 56                	push   r14
  4005be:	41 55                	push   r13
  4005c0:	41 54                	push   r12
  4005c2:	53                   	push   rbx
  4005c3:	48 83 ec 48          	sub    rsp,0x48
  4005c7:	48 89 e0             	mov    rax,rsp
  4005ca:	48 89 c3             	mov    rbx,rax
  4005cd:	c7 45 9c 00 00 00 00 	mov    DWORD PTR [rbp-0x64],0x0
  4005d4:	48 8d 45 9c          	lea    rax,[rbp-0x64]
  4005d8:	48 89 c6             	mov    rsi,rax
  4005db:	bf a4 08 40 00       	mov    edi,0x4008a4
  4005e0:	b8 00 00 00 00       	mov    eax,0x0
  4005e5:	e8 c6 fe ff ff       	call   4004b0 <__isoc99_scanf@plt>
  4005ea:	8b 7d 9c             	mov    edi,DWORD PTR [rbp-0x64]
  4005ed:	48 63 d7             	movsxd rdx,edi
  4005f0:	48 83 ea 01          	sub    rdx,0x1
  4005f4:	48 89 55 b0          	mov    QWORD PTR [rbp-0x50],rdx
  4005f8:	48 63 d7             	movsxd rdx,edi
  4005fb:	49 89 d6             	mov    r14,rdx
  4005fe:	41 bf 00 00 00 00    	mov    r15d,0x0
  400604:	49 69 cf 90 3e 00 00 	imul   rcx,r15,0x3e90
  40060b:	49 6b d6 00          	imul   rdx,r14,0x0
  40060f:	48 8d 34 11          	lea    rsi,[rcx+rdx*1]
  400613:	b9 90 3e 00 00       	mov    ecx,0x3e90
  400618:	48 89 c8             	mov    rax,rcx
  40061b:	49 f7 e6             	mul    r14
  40061e:	48 89 d1             	mov    rcx,rdx
  400621:	48 89 c2             	mov    rdx,rax
  400624:	48 01 ce             	add    rsi,rcx
  400627:	48 89 f1             	mov    rcx,rsi
  40062a:	48 63 d7             	movsxd rdx,edi
  40062d:	49 89 d4             	mov    r12,rdx
  400630:	41 bd 00 00 00 00    	mov    r13d,0x0
  400636:	49 69 cd 90 3e 00 00 	imul   rcx,r13,0x3e90
  40063d:	49 6b d4 00          	imul   rdx,r12,0x0
  400641:	48 8d 34 11          	lea    rsi,[rcx+rdx*1]
  400645:	b9 90 3e 00 00       	mov    ecx,0x3e90
  40064a:	48 89 c8             	mov    rax,rcx
  40064d:	49 f7 e4             	mul    r12
  400650:	48 89 d1             	mov    rcx,rdx
  400653:	48 89 c2             	mov    rdx,rax
  400656:	48 01 ce             	add    rsi,rcx
  400659:	48 89 f1             	mov    rcx,rsi
  40065c:	48 63 c7             	movsxd rax,edi
  40065f:	48 69 c0 d2 07 00 00 	imul   rax,rax,0x7d2
  400666:	ba 10 00 00 00       	mov    edx,0x10
  40066b:	48 83 ea 01          	sub    rdx,0x1
  40066f:	48 01 d0             	add    rax,rdx
  400672:	bf 10 00 00 00       	mov    edi,0x10
  400677:	ba 00 00 00 00       	mov    edx,0x0
  40067c:	48 f7 f7             	div    rdi
  40067f:	48 6b c0 10          	imul   rax,rax,0x10
  400683:	48 29 c4             	sub    rsp,rax
  400686:	48 89 e0             	mov    rax,rsp
  400689:	48 83 c0 00          	add    rax,0x0
  40068d:	48 89 45 a8          	mov    QWORD PTR [rbp-0x58],rax
  400691:	c7 45 cc 00 00 00 00 	mov    DWORD PTR [rbp-0x34],0x0
  400698:	eb 59                	jmp    4006f3 <main+0x13d>
  40069a:	8b 45 cc             	mov    eax,DWORD PTR [rbp-0x34]
  40069d:	48 98                	cdqe   
  40069f:	48 69 d0 d2 07 00 00 	imul   rdx,rax,0x7d2
  4006a6:	48 8b 45 a8          	mov    rax,QWORD PTR [rbp-0x58]
  4006aa:	48 01 d0             	add    rax,rdx
  4006ad:	48 89 c6             	mov    rsi,rax
  4006b0:	bf a7 08 40 00       	mov    edi,0x4008a7
  4006b5:	b8 00 00 00 00       	mov    eax,0x0
  4006ba:	e8 f1 fd ff ff       	call   4004b0 <__isoc99_scanf@plt>
  4006bf:	8b 45 cc             	mov    eax,DWORD PTR [rbp-0x34]
  4006c2:	48 98                	cdqe   
  4006c4:	48 69 c0 d2 07 00 00 	imul   rax,rax,0x7d2
  4006cb:	48 8d 90 e0 03 00 00 	lea    rdx,[rax+0x3e0]
  4006d2:	48 8b 45 a8          	mov    rax,QWORD PTR [rbp-0x58]
  4006d6:	48 01 d0             	add    rax,rdx
  4006d9:	48 83 c0 09          	add    rax,0x9
  4006dd:	48 89 c6             	mov    rsi,rax
  4006e0:	bf a7 08 40 00       	mov    edi,0x4008a7
  4006e5:	b8 00 00 00 00       	mov    eax,0x0
  4006ea:	e8 c1 fd ff ff       	call   4004b0 <__isoc99_scanf@plt>
  4006ef:	83 45 cc 01          	add    DWORD PTR [rbp-0x34],0x1
  4006f3:	8b 45 9c             	mov    eax,DWORD PTR [rbp-0x64]
  4006f6:	39 45 cc             	cmp    DWORD PTR [rbp-0x34],eax
  4006f9:	7c 9f                	jl     40069a <main+0xe4>
  4006fb:	c7 45 c8 00 00 00 00 	mov    DWORD PTR [rbp-0x38],0x0
  400702:	e9 f0 00 00 00       	jmp    4007f7 <main+0x241>
  400707:	c7 45 c4 00 00 00 00 	mov    DWORD PTR [rbp-0x3c],0x0
  40070e:	8b 45 c8             	mov    eax,DWORD PTR [rbp-0x38]
  400711:	48 98                	cdqe   
  400713:	48 69 d0 d2 07 00 00 	imul   rdx,rax,0x7d2
  40071a:	48 8b 45 a8          	mov    rax,QWORD PTR [rbp-0x58]
  40071e:	48 01 d0             	add    rax,rdx
  400721:	48 89 c7             	mov    rdi,rax
  400724:	e8 57 fd ff ff       	call   400480 <strlen@plt>
  400729:	89 45 a4             	mov    DWORD PTR [rbp-0x5c],eax
  40072c:	8b 45 c8             	mov    eax,DWORD PTR [rbp-0x38]
  40072f:	48 98                	cdqe   
  400731:	48 69 c0 d2 07 00 00 	imul   rax,rax,0x7d2
  400738:	48 8d 90 e0 03 00 00 	lea    rdx,[rax+0x3e0]
  40073f:	48 8b 45 a8          	mov    rax,QWORD PTR [rbp-0x58]
  400743:	48 01 d0             	add    rax,rdx
  400746:	48 83 c0 09          	add    rax,0x9
  40074a:	48 89 c7             	mov    rdi,rax
  40074d:	e8 2e fd ff ff       	call   400480 <strlen@plt>
  400752:	89 45 a0             	mov    DWORD PTR [rbp-0x60],eax
  400755:	c7 45 c0 00 00 00 00 	mov    DWORD PTR [rbp-0x40],0x0
  40075c:	eb 71                	jmp    4007cf <main+0x219>
  40075e:	c7 45 bc 00 00 00 00 	mov    DWORD PTR [rbp-0x44],0x0
  400765:	eb 56                	jmp    4007bd <main+0x207>
  400767:	48 8b 55 a8          	mov    rdx,QWORD PTR [rbp-0x58]
  40076b:	8b 45 c0             	mov    eax,DWORD PTR [rbp-0x40]
  40076e:	48 63 c8             	movsxd rcx,eax
  400771:	8b 45 c8             	mov    eax,DWORD PTR [rbp-0x38]
  400774:	48 98                	cdqe   
  400776:	48 69 c0 d2 07 00 00 	imul   rax,rax,0x7d2
  40077d:	48 01 c8             	add    rax,rcx
  400780:	48 01 d0             	add    rax,rdx
  400783:	0f b6 10             	movzx  edx,BYTE PTR [rax]
  400786:	48 8b 75 a8          	mov    rsi,QWORD PTR [rbp-0x58]
  40078a:	8b 45 bc             	mov    eax,DWORD PTR [rbp-0x44]
  40078d:	48 98                	cdqe   
  40078f:	8b 4d c8             	mov    ecx,DWORD PTR [rbp-0x38]
  400792:	48 63 c9             	movsxd rcx,ecx
  400795:	48 69 c9 d2 07 00 00 	imul   rcx,rcx,0x7d2
  40079c:	48 01 f1             	add    rcx,rsi
  40079f:	48 01 c8             	add    rax,rcx
  4007a2:	48 05 e0 03 00 00    	add    rax,0x3e0
  4007a8:	0f b6 40 09          	movzx  eax,BYTE PTR [rax+0x9]
  4007ac:	38 c2                	cmp    dl,al
  4007ae:	75 09                	jne    4007b9 <main+0x203>
  4007b0:	c7 45 c4 01 00 00 00 	mov    DWORD PTR [rbp-0x3c],0x1
  4007b7:	eb 12                	jmp    4007cb <main+0x215>
  4007b9:	83 45 bc 01          	add    DWORD PTR [rbp-0x44],0x1
  4007bd:	8b 45 bc             	mov    eax,DWORD PTR [rbp-0x44]
  4007c0:	3b 45 a0             	cmp    eax,DWORD PTR [rbp-0x60]
  4007c3:	7d 06                	jge    4007cb <main+0x215>
  4007c5:	83 7d c4 00          	cmp    DWORD PTR [rbp-0x3c],0x0
  4007c9:	74 9c                	je     400767 <main+0x1b1>
  4007cb:	83 45 c0 01          	add    DWORD PTR [rbp-0x40],0x1
  4007cf:	8b 45 c0             	mov    eax,DWORD PTR [rbp-0x40]
  4007d2:	3b 45 a4             	cmp    eax,DWORD PTR [rbp-0x5c]
  4007d5:	7c 87                	jl     40075e <main+0x1a8>
  4007d7:	83 7d c4 00          	cmp    DWORD PTR [rbp-0x3c],0x0
  4007db:	74 0c                	je     4007e9 <main+0x233>
  4007dd:	bf aa 08 40 00       	mov    edi,0x4008aa
  4007e2:	e8 89 fc ff ff       	call   400470 <puts@plt>
  4007e7:	eb 0a                	jmp    4007f3 <main+0x23d>
  4007e9:	bf ae 08 40 00       	mov    edi,0x4008ae
  4007ee:	e8 7d fc ff ff       	call   400470 <puts@plt>
  4007f3:	83 45 c8 01          	add    DWORD PTR [rbp-0x38],0x1
  4007f7:	8b 45 9c             	mov    eax,DWORD PTR [rbp-0x64]
  4007fa:	39 45 c8             	cmp    DWORD PTR [rbp-0x38],eax
  4007fd:	0f 8c 04 ff ff ff    	jl     400707 <main+0x151>
  400803:	48 89 dc             	mov    rsp,rbx
  400806:	b8 00 00 00 00       	mov    eax,0x0
  40080b:	48 8d 65 d8          	lea    rsp,[rbp-0x28]
  40080f:	5b                   	pop    rbx
  400810:	41 5c                	pop    r12
  400812:	41 5d                	pop    r13
  400814:	41 5e                	pop    r14
  400816:	41 5f                	pop    r15
  400818:	5d                   	pop    rbp
  400819:	c3                   	ret    
  40081a:	66 0f 1f 44 00 00    	nop    WORD PTR [rax+rax*1+0x0]

0000000000400820 <__libc_csu_init>:
  400820:	41 57                	push   r15
  400822:	41 89 ff             	mov    r15d,edi
  400825:	41 56                	push   r14
  400827:	49 89 f6             	mov    r14,rsi
  40082a:	41 55                	push   r13
  40082c:	49 89 d5             	mov    r13,rdx
  40082f:	41 54                	push   r12
  400831:	4c 8d 25 b8 01 20 00 	lea    r12,[rip+0x2001b8]        # 6009f0 <__frame_dummy_init_array_entry>
  400838:	55                   	push   rbp
  400839:	48 8d 2d b8 01 20 00 	lea    rbp,[rip+0x2001b8]        # 6009f8 <__init_array_end>
  400840:	53                   	push   rbx
  400841:	4c 29 e5             	sub    rbp,r12
  400844:	31 db                	xor    ebx,ebx
  400846:	48 c1 fd 03          	sar    rbp,0x3
  40084a:	48 83 ec 08          	sub    rsp,0x8
  40084e:	e8 ed fb ff ff       	call   400440 <_init>
  400853:	48 85 ed             	test   rbp,rbp
  400856:	74 1e                	je     400876 <__libc_csu_init+0x56>
  400858:	0f 1f 84 00 00 00 00 	nop    DWORD PTR [rax+rax*1+0x0]
  40085f:	00 
  400860:	4c 89 ea             	mov    rdx,r13
  400863:	4c 89 f6             	mov    rsi,r14
  400866:	44 89 ff             	mov    edi,r15d
  400869:	41 ff 14 dc          	call   QWORD PTR [r12+rbx*8]
  40086d:	48 83 c3 01          	add    rbx,0x1
  400871:	48 39 eb             	cmp    rbx,rbp
  400874:	75 ea                	jne    400860 <__libc_csu_init+0x40>
  400876:	48 83 c4 08          	add    rsp,0x8
  40087a:	5b                   	pop    rbx
  40087b:	5d                   	pop    rbp
  40087c:	41 5c                	pop    r12
  40087e:	41 5d                	pop    r13
  400880:	41 5e                	pop    r14
  400882:	41 5f                	pop    r15
  400884:	c3                   	ret    
  400885:	66 66 2e 0f 1f 84 00 	data16 nop WORD PTR cs:[rax+rax*1+0x0]
  40088c:	00 00 00 00 

0000000000400890 <__libc_csu_fini>:
  400890:	f3 c3                	repz ret 

Disassembly of section .fini:

0000000000400894 <_fini>:
  400894:	48 83 ec 08          	sub    rsp,0x8
  400898:	48 83 c4 08          	add    rsp,0x8
  40089c:	c3                   	ret    
